target datalayout = "e-m:e-p270:32:32-p271:32:32-p272:64:64-i64:64-i128:128-f80:128-n8:16:32:64-S128"
target triple = "x86_64-pc-linux-gnu"

%struct.XMapEvent = type { i32, i64, i32, ptr, i64, i64, i32 }

; Function Attrs: nounwind uwtable
define internal i32 @isMapNotify(ptr noundef %0, ptr noundef %1, ptr noundef %2) #0 {
  %4 = alloca ptr, align 8
  %5 = alloca ptr, align 8
  %6 = alloca ptr, align 8
  store ptr %0, ptr %4, align 8
  store ptr %1, ptr %5, align 8
  store ptr %2, ptr %6, align 8
  %7 = load ptr, ptr %5, align 8
  %8 = load i32, ptr %7, align 8
  %9 = icmp eq i32 %8, 19
  br i1 %9, label %10, label %17

10:                                               ; preds = %3
  %11 = load ptr, ptr %5, align 8
  %12 = getelementptr inbounds nuw %struct.XMapEvent, ptr %11, i32 0, i32 5
  %13 = load i64, ptr %12, align 8
  %14 = load ptr, ptr %6, align 8
  %15 = load i64, ptr %14, align 8
  %16 = icmp eq i64 %13, %15
  br label %17

17:                                               ; preds = %10, %3
  %18 = phi i1 [ false, %3 ], [ %16, %10 ]
  %19 = zext i1 %18 to i32
  ret i32 %19
}