; Function Attrs: mustprogress nofree norecurse nosync nounwind willreturn memory(argmem: read) uwtable
define internal range(i32 0, 2) i32 @isMapNotify(ptr readnone captures(none) %0, ptr noundef readonly captures(none) %1, ptr noundef readonly captures(none) %2) #6 {
  %4 = load i32, ptr %1, align 8
  %5 = icmp eq i32 %4, 19
  br i1 %5, label %6, label %12

6:                                                ; preds = %3
  %7 = getelementptr inbounds nuw i8, ptr %1, i64 40
  %8 = load i64, ptr %7, align 8
  %9 = load i64, ptr %2, align 8
  %10 = icmp eq i64 %8, %9
  %11 = zext i1 %10 to i32
  br label %12

12:                                               ; preds = %6, %3
  %13 = phi i32 [ 0, %3 ], [ %11, %6 ]
  ret i32 %13
}